(i__main__
LogFile
p0
(dp1
S'_installed_files'
p2
(dp3
S'../../../../../../../../afs/ihep.ac.cn/bes3/offline/ExternalLib/SLC6/ExternalLib/gaudi/GAUDI_v23r9/GaudiCoreSvc/x86_64-slc6-gcc46-opt/libGaudiCoreSvc.so'
p4
S'../../../InstallArea/x86_64-slc6-gcc46-opt/lib/libGaudiCoreSvc.so'
p5
sS'../../../../../../../../../afs/ihep.ac.cn/bes3/offline/ExternalLib/SLC6/ExternalLib/gaudi/GAUDI_v23r9/GaudiCoreSvc/x86_64-slc6-gcc46-opt/libGaudiCoreSvc.so'
p6
S'../../../InstallArea/x86_64-slc6-gcc46-opt/lib/libGaudiCoreSvc.so'
p7
sS'../../../../../../../../afs/ihep.ac.cn/bes3/offline/Boss/6.6.5/Generator/Bhwide/Bhwide-00-00-11/x86_64-slc6-gcc46-opt/libbhwide.so'
p8
S'../../../InstallArea/x86_64-slc6-gcc46-opt/lib/libbhwide.so'
p9
sS'../../../../../../../../afs/ihep.ac.cn/bes3/offline/Boss/6.6.5/Generator/KKMC/KKMC-00-00-44-slc6tag/x86_64-slc6-gcc46-opt/libkkmc.so'
p10
S'../../../InstallArea/x86_64-slc6-gcc46-opt/lib/libkkmc.so'
p11
sS'../../../../../../../../afs/ihep.ac.cn/bes3/offline/ExternalLib/SLC6/ExternalLib/gaudi/GAUDI_v23r9/GaudiSvc/x86_64-slc6-gcc46-opt/libGaudiSvc.so'
p12
S'../../../InstallArea/x86_64-slc6-gcc46-opt/lib/libGaudiSvc.so'
p13
sS'../../../../../../../../../afs/ihep.ac.cn/bes3/offline/Boss/6.6.5/Generator/KKMC/KKMC-00-00-44-slc6tag/x86_64-slc6-gcc46-opt/libkkmc.so'
p14
S'../../../InstallArea/x86_64-slc6-gcc46-opt/lib/libkkmc.so'
p15
sS'../../../../../../../../../afs/ihep.ac.cn/bes3/offline/Boss/6.6.5/Generator/Bhwide/Bhwide-00-00-11/x86_64-slc6-gcc46-opt/libbhwide.so'
p16
S'../../../InstallArea/x86_64-slc6-gcc46-opt/lib/libbhwide.so'
p17
sS'../../../../../../../../../afs/ihep.ac.cn/bes3/offline/ExternalLib/SLC6/ExternalLib/gaudi/GAUDI_v23r9/GaudiSvc/x86_64-slc6-gcc46-opt/libGaudiSvc.so'
p18
S'../../../InstallArea/x86_64-slc6-gcc46-opt/lib/libGaudiSvc.so'
p19
ssb.